; Function Attrs: mustprogress uwtable
define void @_ZN3nix15PathRefScanSinkC2EOSt3setINSt7__cxx1112basic_stringIcSt11char_traitsIcESaIcEEESt4lessIS7_ESaIS7_EEOSt3mapIS7_NS_9StorePathES9_SaISt4pairIKS7_SE_EEE(ptr noundef nonnull align 8 dereferenceable(184) %0, ptr noundef nonnull align 8 dereferenceable(48) %1, ptr noundef nonnull align 8 dereferenceable(48) %2) unnamed_addr #4 align 2 personality ptr @__gxx_personality_v0 {
  tail call void @_ZN3nix11RefScanSinkC2EOSt3setINSt7__cxx1112basic_stringIcSt11char_traitsIcESaIcEEESt4lessIS7_ESaIS7_EE(ptr noundef nonnull align 8 dereferenceable(136) %0, ptr noundef nonnull align 8 dereferenceable(48) %1)
  store ptr getelementptr inbounds ({ [6 x ptr] }, ptr @_ZTVN3nix15PathRefScanSinkE, i64 0, i32 0, i64 2), ptr %0, align 8
  %4 = getelementptr inbounds i8, ptr %0, i64 144
  %5 = getelementptr inbounds i8, ptr %2, i64 16
  %6 = load ptr, ptr %5, align 8
  %.not.i.i.i.i = icmp eq ptr %6, null
  br i1 %.not.i.i.i.i, label %22, label %7

7:                                                ; preds = %3
  %8 = getelementptr inbounds i8, ptr %2, i64 8
  %9 = load i32, ptr %8, align 8
  store i32 %9, ptr %4, align 8
  %10 = load ptr, ptr %5, align 8
  %11 = getelementptr inbounds i8, ptr %0, i64 152
  store ptr %10, ptr %11, align 8
  %12 = getelementptr inbounds i8, ptr %2, i64 24
  %13 = load ptr, ptr %12, align 8
  %14 = getelementptr inbounds i8, ptr %0, i64 160
  store ptr %13, ptr %14, align 8
  %15 = getelementptr inbounds i8, ptr %2, i64 32
  %16 = load ptr, ptr %15, align 8
  %17 = getelementptr inbounds i8, ptr %0, i64 168
  store ptr %16, ptr %17, align 8
  %18 = getelementptr inbounds i8, ptr %10, i64 8
  store ptr %4, ptr %18, align 8
  %19 = getelementptr inbounds i8, ptr %2, i64 40
  %20 = load i64, ptr %19, align 8
  %21 = getelementptr inbounds i8, ptr %0, i64 176
  store i64 %20, ptr %21, align 8
  store ptr null, ptr %5, align 8
  store ptr %8, ptr %12, align 8
  store ptr %8, ptr %15, align 8
  br label %_ZNSt3mapINSt7__cxx1112basic_stringIcSt11char_traitsIcESaIcEEEN3nix9StorePathESt4lessIS5_ESaISt4pairIKS5_S7_EEEC2EOSE_.exit

22:                                               ; preds = %3
  store i32 0, ptr %4, align 8
  %23 = getelementptr inbounds i8, ptr %0, i64 152
  store ptr null, ptr %23, align 8
  %24 = getelementptr inbounds i8, ptr %0, i64 160
  store ptr %4, ptr %24, align 8
  %25 = getelementptr inbounds i8, ptr %0, i64 168
  store ptr %4, ptr %25, align 8
  %26 = getelementptr inbounds i8, ptr %0, i64 176
  br label %_ZNSt3mapINSt7__cxx1112basic_stringIcSt11char_traitsIcESaIcEEEN3nix9StorePathESt4lessIS5_ESaISt4pairIKS5_S7_EEEC2EOSE_.exit

_ZNSt3mapINSt7__cxx1112basic_stringIcSt11char_traitsIcESaIcEEEN3nix9StorePathESt4lessIS5_ESaISt4pairIKS5_S7_EEEC2EOSE_.exit: ; preds = %7, %22
  %.sink.i.i.i.i = phi ptr [ %26, %22 ], [ %19, %7 ]
  store i64 0, ptr %.sink.i.i.i.i, align 8
  ret void
}